; Function Attrs: nounwind sspstrong uwtable
define internal fastcc void @vfio_msix_disable(ptr noundef %vdev) unnamed_addr #0 {
entry:
  %_now.i.i = alloca %struct.timeval, align 8
  %err = alloca ptr, align 8
  store ptr null, ptr %err, align 8
  tail call void @msix_unset_vector_notifiers(ptr noundef %vdev) #23
  %nr_vectors = getelementptr inbounds nuw i8, ptr %vdev, i64 2880
  %0 = load i32, ptr %nr_vectors, align 16
  %cmp19 = icmp sgt i32 %0, 0
  br i1 %cmp19, label %for.body.lr.ph, label %for.end

for.body.lr.ph:                                   ; preds = %entry
  %msi_vectors = getelementptr inbounds nuw i8, ptr %vdev, i64 2864
  br label %for.body

for.body:                                         ; preds = %for.body.lr.ph, %for.inc
  %1 = phi i32 [ %0, %for.body.lr.ph ], [ %5, %for.inc ]
  %indvars.iv = phi i64 [ 0, %for.body.lr.ph ], [ %indvars.iv.next, %for.inc ]
  %2 = load ptr, ptr %msi_vectors, align 16
  %use = getelementptr %struct.VFIOMSIVector, ptr %2, i64 %indvars.iv, i32 4
  %3 = load i8, ptr %use, align 4
  %tobool = trunc i8 %3 to i1
  br i1 %tobool, label %if.then, label %for.inc

if.then:                                          ; preds = %for.body
  %4 = trunc nuw nsw i64 %indvars.iv to i32
  tail call void @vfio_msix_vector_release(ptr noundef nonnull %vdev, i32 noundef %4)
  tail call void @msix_vector_unuse(ptr noundef nonnull %vdev, i32 noundef %4) #23
  %.pre = load i32, ptr %nr_vectors, align 16
  br label %for.inc

for.inc:                                          ; preds = %for.body, %if.then
  %5 = phi i32 [ %1, %for.body ], [ %.pre, %if.then ]
  %indvars.iv.next = add nuw nsw i64 %indvars.iv, 1
  %6 = sext i32 %5 to i64
  %cmp = icmp slt i64 %indvars.iv.next, %6
  br i1 %cmp, label %for.body, label %for.end, !llvm.loop !11

for.end:                                          ; preds = %for.inc, %entry
  %.lcssa = phi i32 [ %0, %entry ], [ %5, %for.inc ]
  %tobool4.not = icmp eq i32 %.lcssa, 0
  br i1 %tobool4.not, label %if.end6, label %if.then5

if.then5:                                         ; preds = %for.end
  %vbasedev = getelementptr inbounds nuw i8, ptr %vdev, i64 2608
  tail call void @vfio_disable_irqindex(ptr noundef nonnull %vbasedev, i32 noundef 2) #23
  br label %if.end6

if.end6:                                          ; preds = %if.then5, %for.end
  tail call fastcc void @vfio_msi_disable_common(ptr noundef nonnull %vdev)
  %call = call fastcc i32 @vfio_intx_enable(ptr noundef nonnull %vdev, ptr noundef nonnull %err)
  %7 = load ptr, ptr %err, align 8
  %tobool7.not = icmp eq ptr %7, null
  br i1 %tobool7.not, label %if.end10, label %if.then8

if.then8:                                         ; preds = %if.end6
  %name = getelementptr inbounds nuw i8, ptr %vdev, i64 2680
  %8 = load ptr, ptr %name, align 8
  call void (ptr, ptr, ...) @error_reportf_err(ptr noundef nonnull %7, ptr noundef nonnull @.str.42, ptr noundef %8) #23
  br label %if.end10

if.end10:                                         ; preds = %if.then8, %if.end6
  %msix = getelementptr inbounds nuw i8, ptr %vdev, i64 2872
  %9 = load ptr, ptr %msix, align 8
  %pending = getelementptr inbounds nuw i8, ptr %9, i64 16
  %10 = load ptr, ptr %pending, align 8
  %entries = getelementptr inbounds nuw i8, ptr %9, i64 2
  %11 = load i16, ptr %entries, align 2
  %conv = zext i16 %11 to i64
  %sub = add nuw nsw i64 %conv, 63
  %12 = lshr i64 %sub, 3
  %mul = and i64 %12, 16376
  call void @llvm.memset.p0.i64(ptr align 8 %10, i8 0, i64 %mul, i1 false)
  %name13 = getelementptr inbounds nuw i8, ptr %vdev, i64 2680
  %13 = load ptr, ptr %name13, align 8
  call void @llvm.lifetime.start.p0(i64 16, ptr nonnull %_now.i.i)
  %14 = load i32, ptr @trace_events_enabled_count, align 4
  %tobool.i.i = icmp ne i32 %14, 0
  %15 = load i16, ptr @_TRACE_VFIO_MSIX_DISABLE_DSTATE, align 2
  %tobool4.i.i = icmp ne i16 %15, 0
  %or.cond.i.i = select i1 %tobool.i.i, i1 %tobool4.i.i, i1 false
  br i1 %or.cond.i.i, label %land.lhs.true5.i.i, label %trace_vfio_msix_disable.exit

land.lhs.true5.i.i:                               ; preds = %if.end10
  %16 = load i32, ptr @qemu_loglevel, align 4
  %and.i.i.i = and i32 %16, 32768
  %cmp.i.not.i.i = icmp eq i32 %and.i.i.i, 0
  br i1 %cmp.i.not.i.i, label %trace_vfio_msix_disable.exit, label %if.then.i.i

if.then.i.i:                                      ; preds = %land.lhs.true5.i.i
  %17 = load i8, ptr @message_with_timestamp, align 1
  %tobool7.i.i = trunc i8 %17 to i1
  br i1 %tobool7.i.i, label %if.then8.i.i, label %if.else.i.i

if.then8.i.i:                                     ; preds = %if.then.i.i
  %call9.i.i = call i32 @gettimeofday(ptr noundef nonnull %_now.i.i, ptr noundef null) #23
  %call10.i.i = call i32 @qemu_get_thread_id() #23
  %18 = load i64, ptr %_now.i.i, align 8
  %tv_usec.i.i = getelementptr inbounds nuw i8, ptr %_now.i.i, i64 8
  %19 = load i64, ptr %tv_usec.i.i, align 8
  call void (ptr, ...) @qemu_log(ptr noundef nonnull @.str.61, i32 noundef %call10.i.i, i64 noundef %18, i64 noundef %19, ptr noundef %13) #23
  br label %trace_vfio_msix_disable.exit

if.else.i.i:                                      ; preds = %if.then.i.i
  call void (ptr, ...) @qemu_log(ptr noundef nonnull @.str.62, ptr noundef %13) #23
  br label %trace_vfio_msix_disable.exit

trace_vfio_msix_disable.exit:                     ; preds = %if.end10, %land.lhs.true5.i.i, %if.then8.i.i, %if.else.i.i
  call void @llvm.lifetime.end.p0(i64 16, ptr nonnull %_now.i.i)
  ret void
}